; Function Attrs: mustprogress nofree norecurse nosync nounwind willreturn memory(read, inaccessiblemem: none) uwtable
define hidden noundef zeroext i1 @_ZNK10RegionNode10is_diamondEv(ptr nocapture noundef nonnull readonly align 8 dereferenceable(60) %0) local_unnamed_addr #0 align 2 {
  %2 = getelementptr inbounds i8, ptr %0, i64 24
  %3 = load i32, ptr %2, align 8
  %.not = icmp eq i32 %3, 3
  br i1 %.not, label %4, label %45

4:                                                ; preds = %1
  %5 = getelementptr inbounds i8, ptr %0, i64 8
  %6 = load ptr, ptr %5, align 8
  %7 = getelementptr inbounds i8, ptr %6, i64 8
  %8 = load ptr, ptr %7, align 8
  %9 = getelementptr inbounds i8, ptr %6, i64 16
  %10 = load ptr, ptr %9, align 8
  %11 = icmp eq ptr %8, null
  %12 = icmp eq ptr %10, null
  %or.cond = or i1 %11, %12
  br i1 %or.cond, label %45, label %13

13:                                               ; preds = %4
  %14 = getelementptr inbounds i8, ptr %8, i64 8
  %15 = load ptr, ptr %14, align 8
  %16 = load ptr, ptr %15, align 8
  %17 = icmp eq ptr %16, null
  br i1 %17, label %45, label %18

18:                                               ; preds = %13
  %19 = getelementptr inbounds i8, ptr %16, i64 44
  %20 = load i32, ptr %19, align 4
  %21 = and i32 %20, 31
  %22 = icmp eq i32 %21, 21
  br i1 %22, label %23, label %45

23:                                               ; preds = %18
  %24 = getelementptr inbounds i8, ptr %10, i64 8
  %25 = load ptr, ptr %24, align 8
  %26 = load ptr, ptr %25, align 8
  %.not17 = icmp eq ptr %16, %26
  br i1 %.not17, label %27, label %45

27:                                               ; preds = %23
  %28 = getelementptr inbounds i8, ptr %16, i64 8
  %29 = load ptr, ptr %28, align 8
  %30 = getelementptr inbounds i8, ptr %29, i64 8
  %31 = load ptr, ptr %30, align 8
  %32 = getelementptr inbounds i8, ptr %31, i64 44
  %33 = load i32, ptr %32, align 4
  %34 = and i32 %33, 511
  %35 = icmp eq i32 %34, 256
  br i1 %35, label %36, label %45

36:                                               ; preds = %27
  %37 = getelementptr inbounds i8, ptr %31, i64 8
  %38 = load ptr, ptr %37, align 8
  %39 = getelementptr inbounds i8, ptr %38, i64 8
  %40 = load ptr, ptr %39, align 8
  %41 = getelementptr inbounds i8, ptr %40, i64 44
  %42 = load i32, ptr %41, align 4
  %43 = and i32 %42, 255
  %44 = icmp eq i32 %43, 192
  br label %45

45:                                               ; preds = %36, %27, %13, %18, %23, %4, %1
  %.0 = phi i1 [ false, %1 ], [ false, %4 ], [ false, %23 ], [ false, %18 ], [ false, %13 ], [ false, %27 ], [ %44, %36 ]
  ret i1 %.0
}